target datalayout = "e-m:e-p270:32:32-p271:32:32-p272:64:64-i64:64-i128:128-f80:128-n8:16:32:64-S128"
target triple = "x86_64-pc-linux-gnu"

%struct._object = type { %union.anon, ptr }
%union.anon = type { i64 }

@_Py_NoneStruct = external global %struct._object, align 8
@.str.80 = private unnamed_addr constant [39 x i8] c"../cpython/Modules/_testinternalcapi.c\00", align 1
@.str.217 = private unnamed_addr constant [15 x i8] c"tstate != NULL\00", align 1
@__PRETTY_FUNCTION__.test_tstate_capi = private unnamed_addr constant [51 x i8] c"PyObject *test_tstate_capi(PyObject *, PyObject *)\00", align 1
@.str.218 = private unnamed_addr constant [13 x i8] c"dict != NULL\00", align 1
@.str.219 = private unnamed_addr constant [14 x i8] c"dict2 == dict\00", align 1

; Function Attrs: nounwind uwtable
define internal ptr @test_tstate_capi(ptr noundef %0, ptr noundef %1) #0 {
  %3 = alloca ptr, align 8
  %4 = alloca ptr, align 8
  %5 = alloca ptr, align 8
  %6 = alloca ptr, align 8
  %7 = alloca ptr, align 8
  store ptr %0, ptr %3, align 8, !tbaa !3
  store ptr %1, ptr %4, align 8, !tbaa !3
  call void @llvm.lifetime.start.p0(i64 8, ptr %5) #10
  %8 = call ptr @PyThreadState_Get()
  store ptr %8, ptr %5, align 8, !tbaa !9
  %9 = load ptr, ptr %5, align 8, !tbaa !9
  %10 = icmp ne ptr %9, null
  br i1 %10, label %11, label %12

11:                                               ; preds = %2
  br label %14

12:                                               ; preds = %2
  call void @__assert_fail(ptr noundef @.str.217, ptr noundef @.str.80, i32 noundef 1140, ptr noundef @__PRETTY_FUNCTION__.test_tstate_capi) #11
  unreachable

13:                                               ; No predecessors!
  br label %14

14:                                               ; preds = %13, %11
  call void @llvm.lifetime.start.p0(i64 8, ptr %6) #10
  %15 = call ptr @PyThreadState_GetDict()
  store ptr %15, ptr %6, align 8, !tbaa !3
  %16 = load ptr, ptr %6, align 8, !tbaa !3
  %17 = icmp ne ptr %16, null
  br i1 %17, label %18, label %19

18:                                               ; preds = %14
  br label %21

19:                                               ; preds = %14
  call void @__assert_fail(ptr noundef @.str.218, ptr noundef @.str.80, i32 noundef 1144, ptr noundef @__PRETTY_FUNCTION__.test_tstate_capi) #11
  unreachable

20:                                               ; No predecessors!
  br label %21

21:                                               ; preds = %20, %18
  call void @llvm.lifetime.start.p0(i64 8, ptr %7) #10
  %22 = load ptr, ptr %5, align 8, !tbaa !9
  %23 = call ptr @_PyThreadState_GetDict(ptr noundef %22)
  store ptr %23, ptr %7, align 8, !tbaa !3
  %24 = load ptr, ptr %7, align 8, !tbaa !3
  %25 = load ptr, ptr %6, align 8, !tbaa !3
  %26 = icmp eq ptr %24, %25
  br i1 %26, label %27, label %28

27:                                               ; preds = %21
  br label %30

28:                                               ; preds = %21
  call void @__assert_fail(ptr noundef @.str.219, ptr noundef @.str.80, i32 noundef 1148, ptr noundef @__PRETTY_FUNCTION__.test_tstate_capi) #11
  unreachable

29:                                               ; No predecessors!
  br label %30

30:                                               ; preds = %29, %27
  call void @llvm.lifetime.end.p0(i64 8, ptr %7) #10
  call void @llvm.lifetime.end.p0(i64 8, ptr %6) #10
  call void @llvm.lifetime.end.p0(i64 8, ptr %5) #10
  ret ptr @_Py_NoneStruct
}