; Function Attrs: nounwind uwtable
define internal noundef nonnull ptr @test_tstate_capi(ptr readnone captures(none) %0, ptr readnone captures(none) %1) #0 {
  %3 = tail call ptr @PyThreadState_Get() #11
  %.not = icmp eq ptr %3, null
  br i1 %.not, label %4, label %5

4:                                                ; preds = %2
  tail call void @__assert_fail(ptr noundef nonnull @.str.217, ptr noundef nonnull @.str.80, i32 noundef 1140, ptr noundef nonnull @__PRETTY_FUNCTION__.test_tstate_capi) #12
  unreachable

5:                                                ; preds = %2
  %6 = tail call ptr @PyThreadState_GetDict() #11
  %.not6 = icmp eq ptr %6, null
  br i1 %.not6, label %7, label %8

7:                                                ; preds = %5
  tail call void @__assert_fail(ptr noundef nonnull @.str.218, ptr noundef nonnull @.str.80, i32 noundef 1144, ptr noundef nonnull @__PRETTY_FUNCTION__.test_tstate_capi) #12
  unreachable

8:                                                ; preds = %5
  %9 = tail call ptr @_PyThreadState_GetDict(ptr noundef nonnull %3) #11
  %10 = icmp eq ptr %9, %6
  br i1 %10, label %12, label %11

11:                                               ; preds = %8
  tail call void @__assert_fail(ptr noundef nonnull @.str.219, ptr noundef nonnull @.str.80, i32 noundef 1148, ptr noundef nonnull @__PRETTY_FUNCTION__.test_tstate_capi) #12
  unreachable

12:                                               ; preds = %8
  ret ptr @_Py_NoneStruct
}